target datalayout = "e-m:e-p270:32:32-p271:32:32-p272:64:64-i64:64-i128:128-f80:128-n8:16:32:64-S128"
target triple = "x86_64-pc-linux-gnu"

%struct.FLAC__StreamMetadata_StreamInfo = type { i32, i32, i32, i32, i32, i32, i32, i64, [16 x i8] }

; Function Attrs: nounwind sspstrong uwtable
define internal i32 @compare_block_data_streaminfo_(ptr noundef %0, ptr noundef %1) #0 {
  %3 = alloca i32, align 4
  %4 = alloca ptr, align 8
  %5 = alloca ptr, align 8
  store ptr %0, ptr %4, align 8, !tbaa !27
  store ptr %1, ptr %5, align 8, !tbaa !27
  %6 = load ptr, ptr %4, align 8, !tbaa !27
  %7 = getelementptr inbounds nuw %struct.FLAC__StreamMetadata_StreamInfo, ptr %6, i32 0, i32 0
  %8 = load i32, ptr %7, align 8, !tbaa !35
  %9 = load ptr, ptr %5, align 8, !tbaa !27
  %10 = getelementptr inbounds nuw %struct.FLAC__StreamMetadata_StreamInfo, ptr %9, i32 0, i32 0
  %11 = load i32, ptr %10, align 8, !tbaa !35
  %12 = icmp ne i32 %8, %11
  br i1 %12, label %13, label %14

13:                                               ; preds = %2
  store i32 0, ptr %3, align 4
  br label %88

14:                                               ; preds = %2
  %15 = load ptr, ptr %4, align 8, !tbaa !27
  %16 = getelementptr inbounds nuw %struct.FLAC__StreamMetadata_StreamInfo, ptr %15, i32 0, i32 1
  %17 = load i32, ptr %16, align 4, !tbaa !37
  %18 = load ptr, ptr %5, align 8, !tbaa !27
  %19 = getelementptr inbounds nuw %struct.FLAC__StreamMetadata_StreamInfo, ptr %18, i32 0, i32 1
  %20 = load i32, ptr %19, align 4, !tbaa !37
  %21 = icmp ne i32 %17, %20
  br i1 %21, label %22, label %23

22:                                               ; preds = %14
  store i32 0, ptr %3, align 4
  br label %88

23:                                               ; preds = %14
  %24 = load ptr, ptr %4, align 8, !tbaa !27
  %25 = getelementptr inbounds nuw %struct.FLAC__StreamMetadata_StreamInfo, ptr %24, i32 0, i32 2
  %26 = load i32, ptr %25, align 8, !tbaa !38
  %27 = load ptr, ptr %5, align 8, !tbaa !27
  %28 = getelementptr inbounds nuw %struct.FLAC__StreamMetadata_StreamInfo, ptr %27, i32 0, i32 2
  %29 = load i32, ptr %28, align 8, !tbaa !38
  %30 = icmp ne i32 %26, %29
  br i1 %30, label %31, label %32

31:                                               ; preds = %23
  store i32 0, ptr %3, align 4
  br label %88

32:                                               ; preds = %23
  %33 = load ptr, ptr %4, align 8, !tbaa !27
  %34 = getelementptr inbounds nuw %struct.FLAC__StreamMetadata_StreamInfo, ptr %33, i32 0, i32 3
  %35 = load i32, ptr %34, align 4, !tbaa !39
  %36 = load ptr, ptr %5, align 8, !tbaa !27
  %37 = getelementptr inbounds nuw %struct.FLAC__StreamMetadata_StreamInfo, ptr %36, i32 0, i32 3
  %38 = load i32, ptr %37, align 4, !tbaa !39
  %39 = icmp ne i32 %35, %38
  br i1 %39, label %40, label %41

40:                                               ; preds = %32
  store i32 0, ptr %3, align 4
  br label %88

41:                                               ; preds = %32
  %42 = load ptr, ptr %4, align 8, !tbaa !27
  %43 = getelementptr inbounds nuw %struct.FLAC__StreamMetadata_StreamInfo, ptr %42, i32 0, i32 4
  %44 = load i32, ptr %43, align 8, !tbaa !40
  %45 = load ptr, ptr %5, align 8, !tbaa !27
  %46 = getelementptr inbounds nuw %struct.FLAC__StreamMetadata_StreamInfo, ptr %45, i32 0, i32 4
  %47 = load i32, ptr %46, align 8, !tbaa !40
  %48 = icmp ne i32 %44, %47
  br i1 %48, label %49, label %50

49:                                               ; preds = %41
  store i32 0, ptr %3, align 4
  br label %88

50:                                               ; preds = %41
  %51 = load ptr, ptr %4, align 8, !tbaa !27
  %52 = getelementptr inbounds nuw %struct.FLAC__StreamMetadata_StreamInfo, ptr %51, i32 0, i32 5
  %53 = load i32, ptr %52, align 4, !tbaa !41
  %54 = load ptr, ptr %5, align 8, !tbaa !27
  %55 = getelementptr inbounds nuw %struct.FLAC__StreamMetadata_StreamInfo, ptr %54, i32 0, i32 5
  %56 = load i32, ptr %55, align 4, !tbaa !41
  %57 = icmp ne i32 %53, %56
  br i1 %57, label %58, label %59

58:                                               ; preds = %50
  store i32 0, ptr %3, align 4
  br label %88

59:                                               ; preds = %50
  %60 = load ptr, ptr %4, align 8, !tbaa !27
  %61 = getelementptr inbounds nuw %struct.FLAC__StreamMetadata_StreamInfo, ptr %60, i32 0, i32 6
  %62 = load i32, ptr %61, align 8, !tbaa !42
  %63 = load ptr, ptr %5, align 8, !tbaa !27
  %64 = getelementptr inbounds nuw %struct.FLAC__StreamMetadata_StreamInfo, ptr %63, i32 0, i32 6
  %65 = load i32, ptr %64, align 8, !tbaa !42
  %66 = icmp ne i32 %62, %65
  br i1 %66, label %67, label %68

67:                                               ; preds = %59
  store i32 0, ptr %3, align 4
  br label %88

68:                                               ; preds = %59
  %69 = load ptr, ptr %4, align 8, !tbaa !27
  %70 = getelementptr inbounds nuw %struct.FLAC__StreamMetadata_StreamInfo, ptr %69, i32 0, i32 7
  %71 = load i64, ptr %70, align 8, !tbaa !43
  %72 = load ptr, ptr %5, align 8, !tbaa !27
  %73 = getelementptr inbounds nuw %struct.FLAC__StreamMetadata_StreamInfo, ptr %72, i32 0, i32 7
  %74 = load i64, ptr %73, align 8, !tbaa !43
  %75 = icmp ne i64 %71, %74
  br i1 %75, label %76, label %77

76:                                               ; preds = %68
  store i32 0, ptr %3, align 4
  br label %88

77:                                               ; preds = %68
  %78 = load ptr, ptr %4, align 8, !tbaa !27
  %79 = getelementptr inbounds nuw %struct.FLAC__StreamMetadata_StreamInfo, ptr %78, i32 0, i32 8
  %80 = getelementptr inbounds [16 x i8], ptr %79, i64 0, i64 0
  %81 = load ptr, ptr %5, align 8, !tbaa !27
  %82 = getelementptr inbounds nuw %struct.FLAC__StreamMetadata_StreamInfo, ptr %81, i32 0, i32 8
  %83 = getelementptr inbounds [16 x i8], ptr %82, i64 0, i64 0
  %84 = call i32 @memcmp(ptr noundef %80, ptr noundef %83, i64 noundef 16) #14
  %85 = icmp ne i32 %84, 0
  br i1 %85, label %86, label %87

86:                                               ; preds = %77
  store i32 0, ptr %3, align 4
  br label %88

87:                                               ; preds = %77
  store i32 1, ptr %3, align 4
  br label %88

88:                                               ; preds = %87, %86, %76, %67, %58, %49, %40, %31, %22, %13
  %89 = load i32, ptr %3, align 4
  ret i32 %89
}