; Function Attrs: mustprogress nofree nounwind sspstrong willreturn memory(argmem: read) uwtable
define internal fastcc range(i32 0, 2) i32 @compare_block_data_streaminfo_(ptr noundef readonly captures(none) %0, ptr noundef readonly captures(none) %1) unnamed_addr #7 {
  %3 = load i32, ptr %0, align 8, !tbaa !29
  %4 = load i32, ptr %1, align 8, !tbaa !29
  %.not = icmp eq i32 %3, %4
  br i1 %.not, label %5, label %43

5:                                                ; preds = %2
  %6 = getelementptr inbounds nuw i8, ptr %0, i64 4
  %7 = load i32, ptr %6, align 4, !tbaa !31
  %8 = getelementptr inbounds nuw i8, ptr %1, i64 4
  %9 = load i32, ptr %8, align 4, !tbaa !31
  %.not18 = icmp eq i32 %7, %9
  br i1 %.not18, label %10, label %43

10:                                               ; preds = %5
  %11 = getelementptr inbounds nuw i8, ptr %0, i64 8
  %12 = load i32, ptr %11, align 8, !tbaa !32
  %13 = getelementptr inbounds nuw i8, ptr %1, i64 8
  %14 = load i32, ptr %13, align 8, !tbaa !32
  %.not19 = icmp eq i32 %12, %14
  br i1 %.not19, label %15, label %43

15:                                               ; preds = %10
  %16 = getelementptr inbounds nuw i8, ptr %0, i64 12
  %17 = load i32, ptr %16, align 4, !tbaa !33
  %18 = getelementptr inbounds nuw i8, ptr %1, i64 12
  %19 = load i32, ptr %18, align 4, !tbaa !33
  %.not20 = icmp eq i32 %17, %19
  br i1 %.not20, label %20, label %43

20:                                               ; preds = %15
  %21 = getelementptr inbounds nuw i8, ptr %0, i64 16
  %22 = load i32, ptr %21, align 8, !tbaa !34
  %23 = getelementptr inbounds nuw i8, ptr %1, i64 16
  %24 = load i32, ptr %23, align 8, !tbaa !34
  %.not21 = icmp eq i32 %22, %24
  br i1 %.not21, label %25, label %43

25:                                               ; preds = %20
  %26 = getelementptr inbounds nuw i8, ptr %0, i64 20
  %27 = load i32, ptr %26, align 4, !tbaa !35
  %28 = getelementptr inbounds nuw i8, ptr %1, i64 20
  %29 = load i32, ptr %28, align 4, !tbaa !35
  %.not22 = icmp eq i32 %27, %29
  br i1 %.not22, label %30, label %43

30:                                               ; preds = %25
  %31 = getelementptr inbounds nuw i8, ptr %0, i64 24
  %32 = load i32, ptr %31, align 8, !tbaa !36
  %33 = getelementptr inbounds nuw i8, ptr %1, i64 24
  %34 = load i32, ptr %33, align 8, !tbaa !36
  %.not23 = icmp eq i32 %32, %34
  br i1 %.not23, label %35, label %43

35:                                               ; preds = %30
  %36 = getelementptr inbounds nuw i8, ptr %0, i64 32
  %37 = load i64, ptr %36, align 8, !tbaa !37
  %38 = getelementptr inbounds nuw i8, ptr %1, i64 32
  %39 = load i64, ptr %38, align 8, !tbaa !37
  %.not24 = icmp eq i64 %37, %39
  br i1 %.not24, label %40, label %43

40:                                               ; preds = %35
  %41 = getelementptr inbounds nuw i8, ptr %0, i64 40
  %42 = getelementptr inbounds nuw i8, ptr %1, i64 40
  %bcmp = tail call i32 @bcmp(ptr noundef nonnull dereferenceable(16) %41, ptr noundef nonnull dereferenceable(16) %42, i64 16)
  %.not25 = icmp eq i32 %bcmp, 0
  %. = zext i1 %.not25 to i32
  br label %43

43:                                               ; preds = %40, %35, %30, %25, %20, %15, %10, %5, %2
  %.0 = phi i32 [ 0, %2 ], [ 0, %5 ], [ 0, %10 ], [ 0, %15 ], [ 0, %20 ], [ 0, %25 ], [ 0, %30 ], [ 0, %35 ], [ %., %40 ]
  ret i32 %.0
}